target datalayout = "e-m:e-p270:32:32-p271:32:32-p272:64:64-i64:64-i128:128-f80:128-n8:16:32:64-S128"
target triple = "x86_64-pc-linux-gnu"

; Function Attrs: nounwind uwtable
define dso_local ptr @lpBatchAppend(ptr noundef %0, ptr noundef %1, i64 noundef %2) #0 {
  %4 = alloca ptr, align 8
  %5 = alloca ptr, align 8
  %6 = alloca i64, align 8
  %7 = alloca i64, align 8
  %8 = alloca ptr, align 8
  store ptr %0, ptr %4, align 8, !tbaa !5
  store ptr %1, ptr %5, align 8, !tbaa !19
  store i64 %2, ptr %6, align 8, !tbaa !10
  call void @llvm.lifetime.start.p0(i64 8, ptr %7) #10
  %9 = load ptr, ptr %4, align 8, !tbaa !5
  %10 = getelementptr inbounds i8, ptr %9, i64 0
  %11 = load i8, ptr %10, align 1, !tbaa !12
  %12 = zext i8 %11 to i32
  %13 = shl i32 %12, 0
  %14 = load ptr, ptr %4, align 8, !tbaa !5
  %15 = getelementptr inbounds i8, ptr %14, i64 1
  %16 = load i8, ptr %15, align 1, !tbaa !12
  %17 = zext i8 %16 to i32
  %18 = shl i32 %17, 8
  %19 = or i32 %13, %18
  %20 = load ptr, ptr %4, align 8, !tbaa !5
  %21 = getelementptr inbounds i8, ptr %20, i64 2
  %22 = load i8, ptr %21, align 1, !tbaa !12
  %23 = zext i8 %22 to i32
  %24 = shl i32 %23, 16
  %25 = or i32 %19, %24
  %26 = load ptr, ptr %4, align 8, !tbaa !5
  %27 = getelementptr inbounds i8, ptr %26, i64 3
  %28 = load i8, ptr %27, align 1, !tbaa !12
  %29 = zext i8 %28 to i32
  %30 = shl i32 %29, 24
  %31 = or i32 %25, %30
  %32 = zext i32 %31 to i64
  store i64 %32, ptr %7, align 8, !tbaa !10
  call void @llvm.lifetime.start.p0(i64 8, ptr %8) #10
  %33 = load ptr, ptr %4, align 8, !tbaa !5
  %34 = load i64, ptr %7, align 8, !tbaa !10
  %35 = getelementptr inbounds nuw i8, ptr %33, i64 %34
  %36 = getelementptr inbounds i8, ptr %35, i64 -1
  store ptr %36, ptr %8, align 8, !tbaa !5
  %37 = load ptr, ptr %4, align 8, !tbaa !5
  %38 = load ptr, ptr %8, align 8, !tbaa !5
  %39 = load ptr, ptr %5, align 8, !tbaa !19
  %40 = load i64, ptr %6, align 8, !tbaa !10
  %41 = trunc i64 %40 to i32
  %42 = call ptr @lpBatchInsert(ptr noundef %37, ptr noundef %38, i32 noundef 0, ptr noundef %39, i32 noundef %41, ptr noundef null)
  call void @llvm.lifetime.end.p0(i64 8, ptr %8) #10
  call void @llvm.lifetime.end.p0(i64 8, ptr %7) #10
  ret ptr %42
}