; Function Attrs: nounwind uwtable
define dso_local ptr @lpBatchAppend(ptr noundef %0, ptr noundef captures(address_is_null) %1, i64 noundef %2) local_unnamed_addr #3 {
  %4 = load i32, ptr %0, align 1
  %5 = zext i32 %4 to i64
  %6 = getelementptr inbounds nuw i8, ptr %0, i64 %5
  %7 = getelementptr inbounds i8, ptr %6, i64 -1
  %8 = trunc i64 %2 to i32
  %9 = tail call ptr @lpBatchInsert(ptr noundef nonnull %0, ptr noundef nonnull %7, i32 noundef 0, ptr noundef %1, i32 noundef %8, ptr noundef null)
  ret ptr %9
}